; Function Attrs: mustprogress null_pointer_is_valid sspstrong uwtable
define noundef zeroext i1 @_ZN14ExtcapArgument7isValidEv(ptr noundef align 8 dereferenceable_or_null(88) %0) unnamed_addr #0 align 2 personality ptr @__gxx_personality_v0 {
  %2 = alloca %class.QString, align 8
  %3 = getelementptr inbounds nuw i8, ptr %0, i64 40
  %4 = load ptr, ptr %3, align 8
  %.not.i = icmp eq ptr %4, null
  br i1 %.not.i, label %_ZN14ExtcapArgument10isRequiredEv.exit.thread, label %_ZN14ExtcapArgument10isRequiredEv.exit

_ZN14ExtcapArgument10isRequiredEv.exit:           ; preds = %1
  %5 = getelementptr inbounds nuw i8, ptr %4, i64 49
  %6 = load i8, ptr %5, align 1, !range !11, !noundef !12
  %7 = trunc nuw i8 %6 to i1
  br i1 %7, label %8, label %_ZN14ExtcapArgument10isRequiredEv.exit.thread

8:                                                ; preds = %_ZN14ExtcapArgument10isRequiredEv.exit
  call void @llvm.lifetime.start.p0(i64 24, ptr nonnull %2) #26
  %9 = load ptr, ptr %0, align 8
  %10 = getelementptr inbounds nuw i8, ptr %9, i64 128
  %11 = load ptr, ptr %10, align 8
  call void %11(ptr dead_on_unwind nonnull writable sret(%class.QString) align 8 %2, ptr noundef align 8 dereferenceable_or_null(88) %0)
  %12 = getelementptr inbounds nuw i8, ptr %2, i64 16
  %13 = load i64, ptr %12, align 8
  %14 = icmp sgt i64 %13, 0
  %15 = load ptr, ptr %2, align 8
  %.not.i.i.i = icmp eq ptr %15, null
  br i1 %.not.i.i.i, label %_ZN7QStringD2Ev.exit, label %_ZN17QArrayDataPointerIDsE5derefEv.exit.i.i

_ZN17QArrayDataPointerIDsE5derefEv.exit.i.i:      ; preds = %8
  %16 = atomicrmw sub ptr %15, i32 1 seq_cst, align 4
  %.not.i.i = icmp eq i32 %16, 1
  br i1 %.not.i.i, label %17, label %_ZN7QStringD2Ev.exit

17:                                               ; preds = %_ZN17QArrayDataPointerIDsE5derefEv.exit.i.i
  %18 = load ptr, ptr %2, align 8
  call void @_ZN10QArrayData10deallocateEPS_xx(ptr noundef %18, i64 noundef 2, i64 noundef 8) #26
  br label %_ZN7QStringD2Ev.exit

_ZN7QStringD2Ev.exit:                             ; preds = %8, %_ZN17QArrayDataPointerIDsE5derefEv.exit.i.i, %17
  call void @llvm.lifetime.end.p0(i64 24, ptr nonnull %2) #26
  br label %_ZN14ExtcapArgument10isRequiredEv.exit.thread

_ZN14ExtcapArgument10isRequiredEv.exit.thread:    ; preds = %1, %_ZN14ExtcapArgument10isRequiredEv.exit, %_ZN7QStringD2Ev.exit
  %.0 = phi i1 [ %14, %_ZN7QStringD2Ev.exit ], [ true, %_ZN14ExtcapArgument10isRequiredEv.exit ], [ true, %1 ]
  ret i1 %.0
}